; ModuleID = '1/2227.c'
source_filename = "1/2227.c"
target datalayout = "e-m:e-p270:32:32-p271:32:32-p272:64:64-i64:64-f80:128-n8:16:32:64-S128"
target triple = "x86_64-pc-linux-gnu"

@.str = private unnamed_addr constant [3 x i8] c"%d\00", align 1
@.str.1 = private unnamed_addr constant [4 x i8] c"%d\0A\00", align 1

; Function Attrs: noinline nounwind uwtable
define dso_local i32 @p(i32 %0) #0 {
  %2 = alloca i32, align 4
  %3 = alloca i32, align 4
  %4 = alloca i32, align 4
  store i32 %0, i32* %3, align 4
  store i32 2, i32* %4, align 4
  br label %5

5:                                                ; preds = %19, %1
  %6 = load i32, i32* %4, align 4
  %7 = sitofp i32 %6 to double
  %8 = load i32, i32* %3, align 4
  %9 = sitofp i32 %8 to double
  %10 = call double @sqrt(double %9) #3
  %11 = fcmp ole double %7, %10
  br i1 %11, label %12, label %22

12:                                               ; preds = %5
  %13 = load i32, i32* %3, align 4
  %14 = load i32, i32* %4, align 4
  %15 = srem i32 %13, %14
  %16 = icmp eq i32 %15, 0
  br i1 %16, label %17, label %18

17:                                               ; preds = %12
  store i32 0, i32* %2, align 4
  br label %23

18:                                               ; preds = %12
  br label %19

19:                                               ; preds = %18
  %20 = load i32, i32* %4, align 4
  %21 = add nsw i32 %20, 1
  store i32 %21, i32* %4, align 4
  br label %5

22:                                               ; preds = %5
  store i32 1, i32* %2, align 4
  br label %23

23:                                               ; preds = %22, %17
  %24 = load i32, i32* %2, align 4
  ret i32 %24
}

; Function Attrs: nounwind
declare dso_local double @sqrt(double) #1

; Function Attrs: noinline nounwind uwtable
define dso_local i32 @f(i32 %0, i32 %1) #0 {
  %3 = alloca i32, align 4
  %4 = alloca i32, align 4
  %5 = alloca i32, align 4
  %6 = alloca i32, align 4
  %7 = alloca i32, align 4
  store i32 %0, i32* %4, align 4
  store i32 %1, i32* %5, align 4
  %8 = load i32, i32* %4, align 4
  %9 = load i32, i32* %5, align 4
  %10 = icmp slt i32 %8, %9
  br i1 %10, label %11, label %12

11:                                               ; preds = %2
  store i32 0, i32* %3, align 4
  br label %77

12:                                               ; preds = %2
  %13 = load i32, i32* %4, align 4
  %14 = call i32 @p(i32 %13)
  %15 = icmp eq i32 %14, 1
  br i1 %15, label %16, label %17

16:                                               ; preds = %12
  store i32 1, i32* %3, align 4
  br label %77

17:                                               ; preds = %12
  %18 = load i32, i32* %5, align 4
  %19 = icmp eq i32 %18, 1
  br i1 %19, label %20, label %45

20:                                               ; preds = %17
  store i32 1, i32* %6, align 4
  %21 = load i32, i32* %5, align 4
  %22 = add nsw i32 %21, 1
  store i32 %22, i32* %7, align 4
  br label %23

23:                                               ; preds = %41, %20
  %24 = load i32, i32* %7, align 4
  %25 = load i32, i32* %4, align 4
  %26 = icmp slt i32 %24, %25
  br i1 %26, label %27, label %44

27:                                               ; preds = %23
  %28 = load i32, i32* %4, align 4
  %29 = load i32, i32* %7, align 4
  %30 = srem i32 %28, %29
  %31 = icmp eq i32 %30, 0
  br i1 %31, label %32, label %40

32:                                               ; preds = %27
  %33 = load i32, i32* %6, align 4
  %34 = load i32, i32* %4, align 4
  %35 = load i32, i32* %7, align 4
  %36 = sdiv i32 %34, %35
  %37 = load i32, i32* %7, align 4
  %38 = call i32 @f(i32 %36, i32 %37)
  %39 = add nsw i32 %33, %38
  store i32 %39, i32* %6, align 4
  br label %40

40:                                               ; preds = %32, %27
  br label %41

41:                                               ; preds = %40
  %42 = load i32, i32* %7, align 4
  %43 = add nsw i32 %42, 1
  store i32 %43, i32* %7, align 4
  br label %23

44:                                               ; preds = %23
  br label %73

45:                                               ; preds = %17
  %46 = load i32, i32* %5, align 4
  %47 = icmp ne i32 %46, 1
  br i1 %47, label %48, label %72

48:                                               ; preds = %45
  store i32 1, i32* %6, align 4
  %49 = load i32, i32* %5, align 4
  store i32 %49, i32* %7, align 4
  br label %50

50:                                               ; preds = %68, %48
  %51 = load i32, i32* %7, align 4
  %52 = load i32, i32* %4, align 4
  %53 = icmp slt i32 %51, %52
  br i1 %53, label %54, label %71

54:                                               ; preds = %50
  %55 = load i32, i32* %4, align 4
  %56 = load i32, i32* %7, align 4
  %57 = srem i32 %55, %56
  %58 = icmp eq i32 %57, 0
  br i1 %58, label %59, label %67

59:                                               ; preds = %54
  %60 = load i32, i32* %6, align 4
  %61 = load i32, i32* %4, align 4
  %62 = load i32, i32* %7, align 4
  %63 = sdiv i32 %61, %62
  %64 = load i32, i32* %7, align 4
  %65 = call i32 @f(i32 %63, i32 %64)
  %66 = add nsw i32 %60, %65
  store i32 %66, i32* %6, align 4
  br label %67

67:                                               ; preds = %59, %54
  br label %68

68:                                               ; preds = %67
  %69 = load i32, i32* %7, align 4
  %70 = add nsw i32 %69, 1
  store i32 %70, i32* %7, align 4
  br label %50

71:                                               ; preds = %50
  br label %72

72:                                               ; preds = %71, %45
  br label %73

73:                                               ; preds = %72, %44
  br label %74

74:                                               ; preds = %73
  br label %75

75:                                               ; preds = %74
  %76 = load i32, i32* %6, align 4
  store i32 %76, i32* %3, align 4
  br label %77

77:                                               ; preds = %75, %16, %11
  %78 = load i32, i32* %3, align 4
  ret i32 %78
}

; Function Attrs: noinline nounwind uwtable
define dso_local i32 @main() #0 {
  %1 = alloca i32, align 4
  %2 = alloca i32, align 4
  %3 = alloca i32, align 4
  %4 = alloca i32, align 4
  %5 = alloca i32, align 4
  store i32 0, i32* %1, align 4
  %6 = call i32 (i8*, ...) @__isoc99_scanf(i8* getelementptr inbounds ([3 x i8], [3 x i8]* @.str, i64 0, i64 0), i32* %3)
  store i32 0, i32* %5, align 4
  br label %7

7:                                                ; preds = %16, %0
  %8 = load i32, i32* %5, align 4
  %9 = load i32, i32* %3, align 4
  %10 = icmp slt i32 %8, %9
  br i1 %10, label %11, label %19

11:                                               ; preds = %7
  %12 = call i32 (i8*, ...) @__isoc99_scanf(i8* getelementptr inbounds ([3 x i8], [3 x i8]* @.str, i64 0, i64 0), i32* %2)
  %13 = load i32, i32* %2, align 4
  %14 = call i32 @f(i32 %13, i32 1)
  %15 = call i32 (i8*, ...) @printf(i8* getelementptr inbounds ([4 x i8], [4 x i8]* @.str.1, i64 0, i64 0), i32 %14)
  br label %16

16:                                               ; preds = %11
  %17 = load i32, i32* %5, align 4
  %18 = add nsw i32 %17, 1
  store i32 %18, i32* %5, align 4
  br label %7

19:                                               ; preds = %7
  %20 = load i32, i32* %1, align 4
  ret i32 %20
}

declare dso_local i32 @__isoc99_scanf(i8*, ...) #2

declare dso_local i32 @printf(i8*, ...) #2


!llvm.module.flags = !{!0}
!llvm.ident = !{!1}

!0 = !{i32 1, !"wchar_size", i32 4}
!1 = !{!"clang version 10.0.0-4ubuntu1 "}
