; ModuleID = 'source-C-CXX/0/2227.c'
source_filename = "source-C-CXX/0/2227.c"
target datalayout = "e-m:e-p270:32:32-p271:32:32-p272:64:64-i64:64-f80:128-n8:16:32:64-S128"
target triple = "x86_64-pc-linux-gnu"

@.str = private unnamed_addr constant [3 x i8] c"%d\00", align 1
@.str.1 = private unnamed_addr constant [4 x i8] c"%d\0A\00", align 1

; Function Attrs: nofree nounwind sspstrong uwtable
define dso_local i32 @p(i32 %0) local_unnamed_addr #0 {
  %2 = sitofp i32 %0 to double
  %3 = tail call double @sqrt(double %2) #4
  %4 = fcmp ult double %3, 2.000000e+00
  br i1 %4, label %14, label %9

5:                                                ; preds = %9
  %6 = sitofp i32 %13 to double
  %7 = tail call double @sqrt(double %2) #4
  %8 = fcmp ult double %7, %6
  br i1 %8, label %14, label %9, !llvm.loop !5

9:                                                ; preds = %1, %5
  %10 = phi i32 [ %13, %5 ], [ 2, %1 ]
  %11 = srem i32 %0, %10
  %12 = icmp eq i32 %11, 0
  %13 = add nuw nsw i32 %10, 1
  br i1 %12, label %14, label %5

14:                                               ; preds = %9, %5, %1
  %15 = phi i32 [ 1, %1 ], [ 1, %5 ], [ 0, %9 ]
  ret i32 %15
}

; Function Attrs: argmemonly mustprogress nofree nosync nounwind willreturn
declare void @llvm.lifetime.start.p0i8(i64 immarg, i8* nocapture) #1

; Function Attrs: mustprogress nofree nounwind willreturn
declare double @sqrt(double) local_unnamed_addr #2

; Function Attrs: argmemonly mustprogress nofree nosync nounwind willreturn
declare void @llvm.lifetime.end.p0i8(i64 immarg, i8* nocapture) #1

; Function Attrs: nofree nounwind sspstrong uwtable
define dso_local i32 @f(i32 %0, i32 %1) local_unnamed_addr #0 {
  %3 = icmp slt i32 %0, %1
  br i1 %3, label %49, label %4

4:                                                ; preds = %2
  %5 = sitofp i32 %0 to double
  %6 = tail call double @sqrt(double %5) #4
  %7 = fcmp ult double %6, 2.000000e+00
  br i1 %7, label %49, label %12

8:                                                ; preds = %12
  %9 = sitofp i32 %16 to double
  %10 = tail call double @sqrt(double %5) #4
  %11 = fcmp ult double %10, %9
  br i1 %11, label %49, label %12, !llvm.loop !5

12:                                               ; preds = %4, %8
  %13 = phi i32 [ %16, %8 ], [ 2, %4 ]
  %14 = srem i32 %0, %13
  %15 = icmp eq i32 %14, 0
  %16 = add nuw nsw i32 %13, 1
  br i1 %15, label %17, label %8

17:                                               ; preds = %12
  %18 = icmp eq i32 %1, 1
  br i1 %18, label %21, label %19

19:                                               ; preds = %17
  %20 = icmp slt i32 %1, %0
  br i1 %20, label %36, label %49

21:                                               ; preds = %17
  %22 = icmp sgt i32 %0, 2
  br i1 %22, label %23, label %49

23:                                               ; preds = %21, %32
  %24 = phi i32 [ %34, %32 ], [ 2, %21 ]
  %25 = phi i32 [ %33, %32 ], [ 1, %21 ]
  %26 = srem i32 %0, %24
  %27 = sdiv i32 %0, %24
  %28 = icmp eq i32 %26, 0
  br i1 %28, label %29, label %32

29:                                               ; preds = %23
  %30 = tail call i32 @f(i32 %27, i32 %24)
  %31 = add nsw i32 %30, %25
  br label %32

32:                                               ; preds = %23, %29
  %33 = phi i32 [ %31, %29 ], [ %25, %23 ]
  %34 = add nuw nsw i32 %24, 1
  %35 = icmp eq i32 %34, %0
  br i1 %35, label %49, label %23, !llvm.loop !7

36:                                               ; preds = %19, %45
  %37 = phi i32 [ %47, %45 ], [ %1, %19 ]
  %38 = phi i32 [ %46, %45 ], [ 1, %19 ]
  %39 = srem i32 %0, %37
  %40 = sdiv i32 %0, %37
  %41 = icmp eq i32 %39, 0
  br i1 %41, label %42, label %45

42:                                               ; preds = %36
  %43 = tail call i32 @f(i32 %40, i32 %37)
  %44 = add nsw i32 %43, %38
  br label %45

45:                                               ; preds = %36, %42
  %46 = phi i32 [ %44, %42 ], [ %38, %36 ]
  %47 = add i32 %37, 1
  %48 = icmp eq i32 %47, %0
  br i1 %48, label %49, label %36, !llvm.loop !8

49:                                               ; preds = %8, %45, %32, %19, %21, %4, %2
  %50 = phi i32 [ 0, %2 ], [ 1, %4 ], [ 1, %21 ], [ 1, %19 ], [ %33, %32 ], [ %46, %45 ], [ 1, %8 ]
  ret i32 %50
}

; Function Attrs: nofree nounwind sspstrong uwtable
define dso_local i32 @main() local_unnamed_addr #0 {
  %1 = alloca i32, align 4
  %2 = alloca i32, align 4
  %3 = bitcast i32* %1 to i8*
  call void @llvm.lifetime.start.p0i8(i64 4, i8* nonnull %3) #4
  %4 = bitcast i32* %2 to i8*
  call void @llvm.lifetime.start.p0i8(i64 4, i8* nonnull %4) #4
  %5 = call i32 (i8*, ...) @__isoc99_scanf(i8* getelementptr inbounds ([3 x i8], [3 x i8]* @.str, i64 0, i64 0), i32* nonnull %2)
  %6 = load i32, i32* %2, align 4, !tbaa !9
  %7 = icmp sgt i32 %6, 0
  br i1 %7, label %8, label %17

8:                                                ; preds = %0, %8
  %9 = phi i32 [ %14, %8 ], [ 0, %0 ]
  %10 = call i32 (i8*, ...) @__isoc99_scanf(i8* getelementptr inbounds ([3 x i8], [3 x i8]* @.str, i64 0, i64 0), i32* nonnull %1)
  %11 = load i32, i32* %1, align 4, !tbaa !9
  %12 = call i32 @f(i32 %11, i32 1)
  %13 = call i32 (i8*, ...) @printf(i8* nonnull dereferenceable(1) getelementptr inbounds ([4 x i8], [4 x i8]* @.str.1, i64 0, i64 0), i32 %12)
  %14 = add nuw nsw i32 %9, 1
  %15 = load i32, i32* %2, align 4, !tbaa !9
  %16 = icmp slt i32 %14, %15
  br i1 %16, label %8, label %17, !llvm.loop !13

17:                                               ; preds = %8, %0
  call void @llvm.lifetime.end.p0i8(i64 4, i8* nonnull %4) #4
  call void @llvm.lifetime.end.p0i8(i64 4, i8* nonnull %3) #4
  ret i32 0
}

; Function Attrs: nofree nounwind
declare noundef i32 @__isoc99_scanf(i8* nocapture noundef readonly, ...) local_unnamed_addr #3

; Function Attrs: nofree nounwind
declare noundef i32 @printf(i8* nocapture noundef readonly, ...) local_unnamed_addr #3


!llvm.module.flags = !{!0, !1, !2, !3}
!llvm.ident = !{!4}

!0 = !{i32 1, !"wchar_size", i32 4}
!1 = !{i32 7, !"PIC Level", i32 2}
!2 = !{i32 7, !"PIE Level", i32 2}
!3 = !{i32 7, !"uwtable", i32 1}
!4 = !{!"clang version 13.0.0"}
!5 = distinct !{!5, !6}
!6 = !{!"llvm.loop.mustprogress"}
!7 = distinct !{!7, !6}
!8 = distinct !{!8, !6}
!9 = !{!10, !10, i64 0}
!10 = !{!"int", !11, i64 0}
!11 = !{!"omnipotent char", !12, i64 0}
!12 = !{!"Simple C/C++ TBAA"}
!13 = distinct !{!13, !6}
